target datalayout = "e-m:e-p270:32:32-p271:32:32-p272:64:64-i64:64-i128:128-f80:128-n8:16:32:64-S128"
target triple = "x86_64-pc-linux-gnu"

@use_session_cb_cnt = internal global i32 0, align 4
@clientpsk = internal global ptr null, align 8
@pskid = internal global ptr @.str.233, align 8

; Function Attrs: nounwind uwtable
define internal i32 @use_session_cb(ptr noundef %0, ptr noundef %1, ptr noundef %2, ptr noundef %3, ptr noundef %4) #0 {
  %6 = alloca i32, align 4
  %7 = alloca ptr, align 8
  %8 = alloca ptr, align 8
  %9 = alloca ptr, align 8
  %10 = alloca ptr, align 8
  %11 = alloca ptr, align 8
  store ptr %0, ptr %7, align 8, !tbaa !17
  store ptr %1, ptr %8, align 8, !tbaa !82
  store ptr %2, ptr %9, align 8, !tbaa !84
  store ptr %3, ptr %10, align 8, !tbaa !86
  store ptr %4, ptr %11, align 8, !tbaa !88
  %12 = load i32, ptr @use_session_cb_cnt, align 4, !tbaa !13
  %13 = add nsw i32 %12, 1
  store i32 %13, ptr @use_session_cb_cnt, align 4, !tbaa !13
  %14 = load ptr, ptr @clientpsk, align 8, !tbaa !23
  %15 = icmp eq ptr %14, null
  br i1 %15, label %16, label %17

16:                                               ; preds = %5
  store i32 0, ptr %6, align 4
  br label %27

17:                                               ; preds = %5
  %18 = load ptr, ptr @clientpsk, align 8, !tbaa !23
  %19 = call i32 @SSL_SESSION_up_ref(ptr noundef %18)
  %20 = load ptr, ptr @clientpsk, align 8, !tbaa !23
  %21 = load ptr, ptr %11, align 8, !tbaa !88
  store ptr %20, ptr %21, align 8, !tbaa !23
  %22 = load ptr, ptr @pskid, align 8, !tbaa !11
  %23 = load ptr, ptr %9, align 8, !tbaa !84
  store ptr %22, ptr %23, align 8, !tbaa !11
  %24 = load ptr, ptr @pskid, align 8, !tbaa !11
  %25 = call i64 @strlen(ptr noundef %24) #9
  %26 = load ptr, ptr %10, align 8, !tbaa !86
  store i64 %25, ptr %26, align 8, !tbaa !21
  store i32 1, ptr %6, align 4
  br label %27

27:                                               ; preds = %17, %16
  %28 = load i32, ptr %6, align 4
  ret i32 %28
}