; Function Attrs: nounwind uwtable
define internal range(i32 0, 2) i32 @use_session_cb(ptr readnone captures(none) %0, ptr readnone captures(none) %1, ptr noundef writeonly captures(none) %2, ptr noundef writeonly captures(none) %3, ptr noundef writeonly captures(none) %4) #1 {
  %6 = load i32, ptr @use_session_cb_cnt, align 4, !tbaa !19
  %7 = add nsw i32 %6, 1
  store i32 %7, ptr @use_session_cb_cnt, align 4, !tbaa !19
  %8 = load ptr, ptr @clientpsk, align 8, !tbaa !40
  %9 = icmp eq ptr %8, null
  br i1 %9, label %13, label %10

10:                                               ; preds = %5
  %11 = tail call i32 @SSL_SESSION_up_ref(ptr noundef nonnull %8) #10
  %12 = load ptr, ptr @clientpsk, align 8, !tbaa !40
  store ptr %12, ptr %4, align 8, !tbaa !40
  store ptr @.str.233, ptr %2, align 8, !tbaa !11
  store i64 8, ptr %3, align 8, !tbaa !17
  br label %13

13:                                               ; preds = %5, %10
  %.0 = phi i32 [ 1, %10 ], [ 0, %5 ]
  ret i32 %.0
}